target datalayout = "e-m:e-p270:32:32-p271:32:32-p272:64:64-i64:64-i128:128-f80:128-n8:16:32:64-S128"
target triple = "x86_64-pc-linux-gnu"

%struct._lv_table_t = type { %struct._lv_obj_t, i32, i32, ptr, ptr, ptr, i32, i32 }
%struct._lv_obj_t = type { ptr, ptr, ptr, ptr, ptr, %struct.lv_area_t, i32, i16, i16 }
%struct.lv_area_t = type { i32, i32, i32, i32 }
%struct._lv_table_cell_t = type { i32, ptr, [1 x i8] }

; Function Attrs: inlinehint nounwind uwtable
define internal void @lv_memzero(ptr noundef %0, i64 noundef %1) #4 {
  %3 = alloca ptr, align 8
  %4 = alloca i64, align 8
  store ptr %0, ptr %3, align 8, !tbaa !37
  store i64 %1, ptr %4, align 8, !tbaa !48
  %5 = load ptr, ptr %3, align 8, !tbaa !37
  %6 = load i64, ptr %4, align 8, !tbaa !48
  call void @lv_memset(ptr noundef %5, i8 noundef zeroext 0, i64 noundef %6)
  ret void
}

; Function Attrs: nounwind uwtable
define void @lv_table_set_row_count(ptr noundef %0, i32 noundef %1) #0 {
  %3 = alloca ptr, align 8
  %4 = alloca i32, align 4
  %5 = alloca ptr, align 8
  %6 = alloca i32, align 4
  %7 = alloca i32, align 4
  %8 = alloca i32, align 4
  %9 = alloca i32, align 4
  %10 = alloca i32, align 4
  %11 = alloca i32, align 4
  %12 = alloca i32, align 4
  store ptr %0, ptr %3, align 8, !tbaa !8
  store i32 %1, ptr %4, align 4, !tbaa !25
  br label %13

13:                                               ; preds = %2
  %14 = load ptr, ptr %3, align 8, !tbaa !8
  %15 = icmp ne ptr %14, null
  br i1 %15, label %20, label %16

16:                                               ; preds = %13
  br label %17

17:                                               ; preds = %16
  br label %18

18:                                               ; preds = %17
  br label %19

19:                                               ; preds = %18, %19
  br label %19

20:                                               ; preds = %13
  br label %21

21:                                               ; preds = %20
  call void @llvm.lifetime.start.p0(i64 8, ptr %5) #6
  %22 = load ptr, ptr %3, align 8, !tbaa !8
  store ptr %22, ptr %5, align 8, !tbaa !10
  %23 = load ptr, ptr %5, align 8, !tbaa !10
  %24 = getelementptr inbounds nuw %struct._lv_table_t, ptr %23, i32 0, i32 2
  %25 = load i32, ptr %24, align 4, !tbaa !22
  %26 = load i32, ptr %4, align 4, !tbaa !25
  %27 = icmp eq i32 %25, %26
  br i1 %27, label %28, label %29

28:                                               ; preds = %21
  store i32 1, ptr %6, align 4
  br label %204

29:                                               ; preds = %21
  call void @llvm.lifetime.start.p0(i64 4, ptr %7) #6
  %30 = load ptr, ptr %5, align 8, !tbaa !10
  %31 = getelementptr inbounds nuw %struct._lv_table_t, ptr %30, i32 0, i32 2
  %32 = load i32, ptr %31, align 4, !tbaa !22
  store i32 %32, ptr %7, align 4, !tbaa !25
  %33 = load i32, ptr %4, align 4, !tbaa !25
  %34 = load ptr, ptr %5, align 8, !tbaa !10
  %35 = getelementptr inbounds nuw %struct._lv_table_t, ptr %34, i32 0, i32 2
  store i32 %33, ptr %35, align 4, !tbaa !22
  %36 = load ptr, ptr %5, align 8, !tbaa !10
  %37 = getelementptr inbounds nuw %struct._lv_table_t, ptr %36, i32 0, i32 4
  %38 = load ptr, ptr %37, align 8, !tbaa !24
  %39 = load ptr, ptr %5, align 8, !tbaa !10
  %40 = getelementptr inbounds nuw %struct._lv_table_t, ptr %39, i32 0, i32 2
  %41 = load i32, ptr %40, align 4, !tbaa !22
  %42 = zext i32 %41 to i64
  %43 = mul i64 %42, 4
  %44 = call ptr @lv_realloc(ptr noundef %38, i64 noundef %43)
  %45 = load ptr, ptr %5, align 8, !tbaa !10
  %46 = getelementptr inbounds nuw %struct._lv_table_t, ptr %45, i32 0, i32 4
  store ptr %44, ptr %46, align 8, !tbaa !24
  br label %47

47:                                               ; preds = %29
  %48 = load ptr, ptr %5, align 8, !tbaa !10
  %49 = getelementptr inbounds nuw %struct._lv_table_t, ptr %48, i32 0, i32 4
  %50 = load ptr, ptr %49, align 8, !tbaa !24
  %51 = icmp ne ptr %50, null
  br i1 %51, label %58, label %52

52:                                               ; preds = %47
  br label %53

53:                                               ; preds = %52
  br label %54

54:                                               ; preds = %53
  br label %55

55:                                               ; preds = %54
  br label %56

56:                                               ; preds = %57, %55
  br label %57

57:                                               ; preds = %56
  br label %56

58:                                               ; preds = %47
  br label %59

59:                                               ; preds = %58
  br label %60

60:                                               ; preds = %59
  %61 = load ptr, ptr %5, align 8, !tbaa !10
  %62 = getelementptr inbounds nuw %struct._lv_table_t, ptr %61, i32 0, i32 4
  %63 = load ptr, ptr %62, align 8, !tbaa !24
  %64 = icmp eq ptr %63, null
  br i1 %64, label %65, label %66

65:                                               ; preds = %60
  store i32 1, ptr %6, align 4
  br label %203

66:                                               ; preds = %60
  %67 = load i32, ptr %7, align 4, !tbaa !25
  %68 = load i32, ptr %4, align 4, !tbaa !25
  %69 = icmp ugt i32 %67, %68
  br i1 %69, label %70, label %138

70:                                               ; preds = %66
  call void @llvm.lifetime.start.p0(i64 4, ptr %8) #6
  %71 = load i32, ptr %7, align 4, !tbaa !25
  %72 = load ptr, ptr %5, align 8, !tbaa !10
  %73 = getelementptr inbounds nuw %struct._lv_table_t, ptr %72, i32 0, i32 1
  %74 = load i32, ptr %73, align 8, !tbaa !12
  %75 = mul i32 %71, %74
  store i32 %75, ptr %8, align 4, !tbaa !25
  call void @llvm.lifetime.start.p0(i64 4, ptr %9) #6
  %76 = load ptr, ptr %5, align 8, !tbaa !10
  %77 = getelementptr inbounds nuw %struct._lv_table_t, ptr %76, i32 0, i32 1
  %78 = load i32, ptr %77, align 8, !tbaa !12
  %79 = load ptr, ptr %5, align 8, !tbaa !10
  %80 = getelementptr inbounds nuw %struct._lv_table_t, ptr %79, i32 0, i32 2
  %81 = load i32, ptr %80, align 4, !tbaa !22
  %82 = mul i32 %78, %81
  store i32 %82, ptr %9, align 4, !tbaa !25
  call void @llvm.lifetime.start.p0(i64 4, ptr %10) #6
  %83 = load i32, ptr %9, align 4, !tbaa !25
  store i32 %83, ptr %10, align 4, !tbaa !25
  br label %84

84:                                               ; preds = %134, %70
  %85 = load i32, ptr %10, align 4, !tbaa !25
  %86 = load i32, ptr %8, align 4, !tbaa !25
  %87 = icmp ult i32 %85, %86
  br i1 %87, label %88, label %137

88:                                               ; preds = %84
  %89 = load ptr, ptr %5, align 8, !tbaa !10
  %90 = getelementptr inbounds nuw %struct._lv_table_t, ptr %89, i32 0, i32 3
  %91 = load ptr, ptr %90, align 8, !tbaa !26
  %92 = load i32, ptr %10, align 4, !tbaa !25
  %93 = zext i32 %92 to i64
  %94 = getelementptr inbounds nuw ptr, ptr %91, i64 %93
  %95 = load ptr, ptr %94, align 8, !tbaa !27
  %96 = icmp ne ptr %95, null
  br i1 %96, label %97, label %126

97:                                               ; preds = %88
  %98 = load ptr, ptr %5, align 8, !tbaa !10
  %99 = getelementptr inbounds nuw %struct._lv_table_t, ptr %98, i32 0, i32 3
  %100 = load ptr, ptr %99, align 8, !tbaa !26
  %101 = load i32, ptr %10, align 4, !tbaa !25
  %102 = zext i32 %101 to i64
  %103 = getelementptr inbounds nuw ptr, ptr %100, i64 %102
  %104 = load ptr, ptr %103, align 8, !tbaa !27
  %105 = getelementptr inbounds nuw %struct._lv_table_cell_t, ptr %104, i32 0, i32 1
  %106 = load ptr, ptr %105, align 8, !tbaa !31
  %107 = icmp ne ptr %106, null
  br i1 %107, label %108, label %126

108:                                              ; preds = %97
  %109 = load ptr, ptr %5, align 8, !tbaa !10
  %110 = getelementptr inbounds nuw %struct._lv_table_t, ptr %109, i32 0, i32 3
  %111 = load ptr, ptr %110, align 8, !tbaa !26
  %112 = load i32, ptr %10, align 4, !tbaa !25
  %113 = zext i32 %112 to i64
  %114 = getelementptr inbounds nuw ptr, ptr %111, i64 %113
  %115 = load ptr, ptr %114, align 8, !tbaa !27
  %116 = getelementptr inbounds nuw %struct._lv_table_cell_t, ptr %115, i32 0, i32 1
  %117 = load ptr, ptr %116, align 8, !tbaa !31
  call void @lv_free(ptr noundef %117)
  %118 = load ptr, ptr %5, align 8, !tbaa !10
  %119 = getelementptr inbounds nuw %struct._lv_table_t, ptr %118, i32 0, i32 3
  %120 = load ptr, ptr %119, align 8, !tbaa !26
  %121 = load i32, ptr %10, align 4, !tbaa !25
  %122 = zext i32 %121 to i64
  %123 = getelementptr inbounds nuw ptr, ptr %120, i64 %122
  %124 = load ptr, ptr %123, align 8, !tbaa !27
  %125 = getelementptr inbounds nuw %struct._lv_table_cell_t, ptr %124, i32 0, i32 1
  store ptr null, ptr %125, align 8, !tbaa !31
  br label %126

126:                                              ; preds = %108, %97, %88
  %127 = load ptr, ptr %5, align 8, !tbaa !10
  %128 = getelementptr inbounds nuw %struct._lv_table_t, ptr %127, i32 0, i32 3
  %129 = load ptr, ptr %128, align 8, !tbaa !26
  %130 = load i32, ptr %10, align 4, !tbaa !25
  %131 = zext i32 %130 to i64
  %132 = getelementptr inbounds nuw ptr, ptr %129, i64 %131
  %133 = load ptr, ptr %132, align 8, !tbaa !27
  call void @lv_free(ptr noundef %133)
  br label %134

134:                                              ; preds = %126
  %135 = load i32, ptr %10, align 4, !tbaa !25
  %136 = add i32 %135, 1
  store i32 %136, ptr %10, align 4, !tbaa !25
  br label %84, !llvm.loop !54

137:                                              ; preds = %84
  call void @llvm.lifetime.end.p0(i64 4, ptr %10) #6
  call void @llvm.lifetime.end.p0(i64 4, ptr %9) #6
  call void @llvm.lifetime.end.p0(i64 4, ptr %8) #6
  br label %138

138:                                              ; preds = %137, %66
  %139 = load ptr, ptr %5, align 8, !tbaa !10
  %140 = getelementptr inbounds nuw %struct._lv_table_t, ptr %139, i32 0, i32 3
  %141 = load ptr, ptr %140, align 8, !tbaa !26
  %142 = load ptr, ptr %5, align 8, !tbaa !10
  %143 = getelementptr inbounds nuw %struct._lv_table_t, ptr %142, i32 0, i32 2
  %144 = load i32, ptr %143, align 4, !tbaa !22
  %145 = load ptr, ptr %5, align 8, !tbaa !10
  %146 = getelementptr inbounds nuw %struct._lv_table_t, ptr %145, i32 0, i32 1
  %147 = load i32, ptr %146, align 8, !tbaa !12
  %148 = mul i32 %144, %147
  %149 = zext i32 %148 to i64
  %150 = mul i64 %149, 8
  %151 = call ptr @lv_realloc(ptr noundef %141, i64 noundef %150)
  %152 = load ptr, ptr %5, align 8, !tbaa !10
  %153 = getelementptr inbounds nuw %struct._lv_table_t, ptr %152, i32 0, i32 3
  store ptr %151, ptr %153, align 8, !tbaa !26
  br label %154

154:                                              ; preds = %138
  %155 = load ptr, ptr %5, align 8, !tbaa !10
  %156 = getelementptr inbounds nuw %struct._lv_table_t, ptr %155, i32 0, i32 3
  %157 = load ptr, ptr %156, align 8, !tbaa !26
  %158 = icmp ne ptr %157, null
  br i1 %158, label %165, label %159

159:                                              ; preds = %154
  br label %160

160:                                              ; preds = %159
  br label %161

161:                                              ; preds = %160
  br label %162

162:                                              ; preds = %161
  br label %163

163:                                              ; preds = %164, %162
  br label %164

164:                                              ; preds = %163
  br label %163

165:                                              ; preds = %154
  br label %166

166:                                              ; preds = %165
  br label %167

167:                                              ; preds = %166
  %168 = load ptr, ptr %5, align 8, !tbaa !10
  %169 = getelementptr inbounds nuw %struct._lv_table_t, ptr %168, i32 0, i32 3
  %170 = load ptr, ptr %169, align 8, !tbaa !26
  %171 = icmp eq ptr %170, null
  br i1 %171, label %172, label %173

172:                                              ; preds = %167
  store i32 1, ptr %6, align 4
  br label %203

173:                                              ; preds = %167
  %174 = load i32, ptr %7, align 4, !tbaa !25
  %175 = load i32, ptr %4, align 4, !tbaa !25
  %176 = icmp ult i32 %174, %175
  br i1 %176, label %177, label %201

177:                                              ; preds = %173
  call void @llvm.lifetime.start.p0(i64 4, ptr %11) #6
  %178 = load i32, ptr %7, align 4, !tbaa !25
  %179 = load ptr, ptr %5, align 8, !tbaa !10
  %180 = getelementptr inbounds nuw %struct._lv_table_t, ptr %179, i32 0, i32 1
  %181 = load i32, ptr %180, align 8, !tbaa !12
  %182 = mul i32 %178, %181
  store i32 %182, ptr %11, align 4, !tbaa !25
  call void @llvm.lifetime.start.p0(i64 4, ptr %12) #6
  %183 = load ptr, ptr %5, align 8, !tbaa !10
  %184 = getelementptr inbounds nuw %struct._lv_table_t, ptr %183, i32 0, i32 1
  %185 = load i32, ptr %184, align 8, !tbaa !12
  %186 = load ptr, ptr %5, align 8, !tbaa !10
  %187 = getelementptr inbounds nuw %struct._lv_table_t, ptr %186, i32 0, i32 2
  %188 = load i32, ptr %187, align 4, !tbaa !22
  %189 = mul i32 %185, %188
  store i32 %189, ptr %12, align 4, !tbaa !25
  %190 = load ptr, ptr %5, align 8, !tbaa !10
  %191 = getelementptr inbounds nuw %struct._lv_table_t, ptr %190, i32 0, i32 3
  %192 = load ptr, ptr %191, align 8, !tbaa !26
  %193 = load i32, ptr %11, align 4, !tbaa !25
  %194 = zext i32 %193 to i64
  %195 = getelementptr inbounds nuw ptr, ptr %192, i64 %194
  %196 = load i32, ptr %12, align 4, !tbaa !25
  %197 = load i32, ptr %11, align 4, !tbaa !25
  %198 = sub i32 %196, %197
  %199 = zext i32 %198 to i64
  %200 = mul i64 %199, 8
  call void @lv_memzero(ptr noundef %195, i64 noundef %200)
  call void @llvm.lifetime.end.p0(i64 4, ptr %12) #6
  call void @llvm.lifetime.end.p0(i64 4, ptr %11) #6
  br label %201

201:                                              ; preds = %177, %173
  %202 = load ptr, ptr %3, align 8, !tbaa !8
  call void @refr_size_form_row(ptr noundef %202, i32 noundef 0)
  store i32 0, ptr %6, align 4
  br label %203

203:                                              ; preds = %201, %172, %65
  call void @llvm.lifetime.end.p0(i64 4, ptr %7) #6
  br label %204

204:                                              ; preds = %203, %28
  call void @llvm.lifetime.end.p0(i64 8, ptr %5) #6
  %205 = load i32, ptr %6, align 4
  switch i32 %205, label %207 [
    i32 0, label %206
    i32 1, label %206
  ]

206:                                              ; preds = %204, %204
  ret void

207:                                              ; preds = %204
  unreachable
}