; Function Attrs: nounwind uwtable
define void @lv_table_set_row_count(ptr noundef %0, i32 noundef %1) local_unnamed_addr #0 {
  %.not = icmp eq ptr %0, null
  br i1 %.not, label %.preheader, label %3

.preheader:                                       ; preds = %2, %.preheader
  br label %.preheader

3:                                                ; preds = %2
  %4 = getelementptr inbounds nuw i8, ptr %0, i64 68
  %5 = load i32, ptr %4, align 4, !tbaa !18
  %6 = icmp eq i32 %5, %1
  br i1 %6, label %59, label %7

7:                                                ; preds = %3
  store i32 %1, ptr %4, align 4, !tbaa !18
  %8 = getelementptr inbounds nuw i8, ptr %0, i64 80
  %9 = load ptr, ptr %8, align 8, !tbaa !20
  %10 = zext i32 %1 to i64
  %11 = shl nuw nsw i64 %10, 2
  %12 = tail call ptr @lv_realloc(ptr noundef %9, i64 noundef %11) #9
  store ptr %12, ptr %8, align 8, !tbaa !20
  %.not54 = icmp eq ptr %12, null
  br i1 %.not54, label %.preheader58, label %13

.preheader58:                                     ; preds = %7, %.preheader58
  br label %.preheader58

13:                                               ; preds = %7
  %14 = icmp ugt i32 %5, %1
  %.pre62 = load i32, ptr %4, align 4, !tbaa !18
  br i1 %14, label %15, label %.loopexit

15:                                               ; preds = %13
  %16 = getelementptr inbounds nuw i8, ptr %0, i64 64
  %17 = load i32, ptr %16, align 8, !tbaa !3
  %18 = mul i32 %17, %5
  %19 = mul i32 %.pre62, %17
  %20 = icmp ult i32 %19, %18
  br i1 %20, label %.lr.ph, label %.loopexit

.lr.ph:                                           ; preds = %15
  %21 = getelementptr inbounds nuw i8, ptr %0, i64 72
  %22 = zext i32 %19 to i64
  br label %23

23:                                               ; preds = %.lr.ph, %35
  %indvars.iv = phi i64 [ %22, %.lr.ph ], [ %indvars.iv.next, %35 ]
  %24 = load ptr, ptr %21, align 8, !tbaa !22
  %25 = getelementptr inbounds nuw ptr, ptr %24, i64 %indvars.iv
  %26 = load ptr, ptr %25, align 8, !tbaa !23
  %.not56 = icmp eq ptr %26, null
  br i1 %.not56, label %35, label %27

27:                                               ; preds = %23
  %28 = getelementptr inbounds nuw i8, ptr %26, i64 8
  %29 = load ptr, ptr %28, align 8, !tbaa !27
  %.not57 = icmp eq ptr %29, null
  br i1 %.not57, label %35, label %30

30:                                               ; preds = %27
  tail call void @lv_free(ptr noundef nonnull %29) #9
  %31 = load ptr, ptr %21, align 8, !tbaa !22
  %32 = getelementptr inbounds nuw ptr, ptr %31, i64 %indvars.iv
  %33 = load ptr, ptr %32, align 8, !tbaa !23
  %34 = getelementptr inbounds nuw i8, ptr %33, i64 8
  store ptr null, ptr %34, align 8, !tbaa !27
  br label %35

35:                                               ; preds = %30, %27, %23
  %36 = phi ptr [ %33, %30 ], [ %26, %27 ], [ null, %23 ]
  tail call void @lv_free(ptr noundef %36) #9
  %indvars.iv.next = add nuw nsw i64 %indvars.iv, 1
  %lftr.wideiv = trunc i64 %indvars.iv.next to i32
  %exitcond.not = icmp eq i32 %18, %lftr.wideiv
  br i1 %exitcond.not, label %.loopexit.loopexit, label %23, !llvm.loop !45

.loopexit.loopexit:                               ; preds = %35
  %.pre = load i32, ptr %4, align 4, !tbaa !18
  br label %.loopexit

.loopexit:                                        ; preds = %.loopexit.loopexit, %15, %13
  %37 = phi i32 [ %.pre, %.loopexit.loopexit ], [ %.pre62, %15 ], [ %.pre62, %13 ]
  %38 = getelementptr inbounds nuw i8, ptr %0, i64 72
  %39 = load ptr, ptr %38, align 8, !tbaa !22
  %40 = getelementptr inbounds nuw i8, ptr %0, i64 64
  %41 = load i32, ptr %40, align 8, !tbaa !3
  %42 = mul i32 %41, %37
  %43 = zext i32 %42 to i64
  %44 = shl nuw nsw i64 %43, 3
  %45 = tail call ptr @lv_realloc(ptr noundef %39, i64 noundef %44) #9
  store ptr %45, ptr %38, align 8, !tbaa !22
  %.not55 = icmp eq ptr %45, null
  br i1 %.not55, label %.preheader59, label %46

.preheader59:                                     ; preds = %.loopexit, %.preheader59
  br label %.preheader59

46:                                               ; preds = %.loopexit
  %47 = icmp ult i32 %5, %1
  br i1 %47, label %48, label %58

48:                                               ; preds = %46
  %49 = load i32, ptr %40, align 8, !tbaa !3
  %50 = mul i32 %49, %5
  %51 = load i32, ptr %4, align 4, !tbaa !18
  %52 = zext i32 %50 to i64
  %53 = getelementptr inbounds nuw ptr, ptr %45, i64 %52
  %54 = sub i32 %51, %5
  %55 = mul i32 %54, %49
  %56 = zext i32 %55 to i64
  %57 = shl nuw nsw i64 %56, 3
  tail call void @lv_memset(ptr noundef nonnull %53, i8 noundef zeroext 0, i64 noundef range(i64 0, 34359738361) %57) #9
  br label %58

58:                                               ; preds = %48, %46
  tail call fastcc void @refr_size_form_row(ptr noundef nonnull %0)
  br label %59

59:                                               ; preds = %3, %58
  ret void
}